target datalayout = "e-m:e-p270:32:32-p271:32:32-p272:64:64-i64:64-i128:128-f80:128-n8:16:32:64-S128"
target triple = "x86_64-pc-linux-gnu"

%"class.vcg::Color4" = type { %"class.vcg::Point4" }
%"class.vcg::Point4" = type { [4 x i8] }
%class.QString = type { ptr }
%class.MLRenderingAction = type { %class.QAction }
%class.QAction = type { %class.QObject }
%class.QObject = type { ptr, %class.QScopedPointer }
%class.QScopedPointer = type { ptr }
%class.MLRenderingPerMeshColorAction = type { %class.MLRenderingAction, %"class.vcg::Color4", i32 }

@_ZTV29MLRenderingPerMeshColorAction = external unnamed_addr constant { [19 x ptr] }, align 8
@.str.30 = private unnamed_addr constant [5 x i8] c"Mesh\00", align 1

; Function Attrs: mustprogress nounwind uwtable
define linkonce_odr void @_ZN3vcg6Point4IhEC2Ev(ptr noundef nonnull align 1 dereferenceable(4) %0) unnamed_addr #4 comdat align 2 {
  %2 = alloca ptr, align 8
  store ptr %0, ptr %2, align 8
  ret void
}

; Function Attrs: mustprogress nounwind uwtable
define linkonce_odr void @_ZN17MLRenderingActionD2Ev(ptr noundef nonnull align 8 dereferenceable(16) %0) unnamed_addr #4 comdat align 2 {
  %2 = alloca ptr, align 8
  store ptr %0, ptr %2, align 8
  %3 = load ptr, ptr %2, align 8
  call void @_ZN7QActionD2Ev(ptr noundef nonnull align 8 dereferenceable(16) %3) #3
  ret void
}

; Function Attrs: mustprogress uwtable
define linkonce_odr void @_ZN7QStringC2EPKc(ptr noundef nonnull align 8 dereferenceable(8) %0, ptr noundef %1) unnamed_addr #5 comdat align 2 {
  %3 = alloca ptr, align 8
  %4 = alloca ptr, align 8
  store ptr %0, ptr %3, align 8
  store ptr %1, ptr %4, align 8
  %5 = load ptr, ptr %3, align 8
  %6 = getelementptr inbounds %class.QString, ptr %5, i32 0, i32 0
  %7 = load ptr, ptr %4, align 8
  %8 = load ptr, ptr %4, align 8
  %9 = icmp ne ptr %8, null
  br i1 %9, label %10, label %14

10:                                               ; preds = %2
  %11 = load ptr, ptr %4, align 8
  %12 = call i64 @strlen(ptr noundef %11) #17
  %13 = trunc i64 %12 to i32
  br label %15

14:                                               ; preds = %2
  br label %15

15:                                               ; preds = %14, %10
  %16 = phi i32 [ %13, %10 ], [ -1, %14 ]
  %17 = call noundef ptr @_ZN7QString16fromAscii_helperEPKci(ptr noundef %7, i32 noundef %16)
  store ptr %17, ptr %6, align 8
  ret void
}

; Function Attrs: mustprogress nounwind uwtable
define linkonce_odr void @_ZN3vcg6Color4IhEC2Ev(ptr noundef nonnull align 1 dereferenceable(4) %0) unnamed_addr #4 comdat align 2 {
  %2 = alloca ptr, align 8
  store ptr %0, ptr %2, align 8
  %3 = load ptr, ptr %2, align 8
  call void @_ZN3vcg6Point4IhEC2Ev(ptr noundef nonnull align 1 dereferenceable(4) %3)
  ret void
}

; Function Attrs: mustprogress uwtable
define void @_ZN29MLRenderingPerMeshColorActionC2EN3vcg20GLMeshAttributesInfo18PRIMITIVE_MODALITYEiP7QObject(ptr noundef nonnull align 8 dereferenceable(24) %0, i32 noundef %1, i32 noundef %2, ptr noundef %3) unnamed_addr #5 align 2 personality ptr @__gxx_personality_v0 {
  %5 = alloca ptr, align 8
  %6 = alloca i32, align 4
  %7 = alloca i32, align 4
  %8 = alloca ptr, align 8
  %9 = alloca ptr, align 8
  %10 = alloca i32, align 4
  %11 = alloca %class.QString, align 8
  store ptr %0, ptr %5, align 8
  store i32 %1, ptr %6, align 4
  store i32 %2, ptr %7, align 4
  store ptr %3, ptr %8, align 8
  %12 = load ptr, ptr %5, align 8
  %13 = load i32, ptr %7, align 4
  %14 = load ptr, ptr %8, align 8
  call void @_ZN17MLRenderingActionC2EiP7QObject(ptr noundef nonnull align 8 dereferenceable(16) %12, i32 noundef %13, ptr noundef %14)
  store ptr getelementptr inbounds ({ [19 x ptr] }, ptr @_ZTV29MLRenderingPerMeshColorAction, i32 0, i32 0, i32 2), ptr %12, align 8
  %15 = getelementptr inbounds %class.MLRenderingPerMeshColorAction, ptr %12, i32 0, i32 1
  invoke void @_ZN3vcg6Color4IhEC2Ev(ptr noundef nonnull align 1 dereferenceable(4) %15)
          to label %16 unwind label %21

16:                                               ; preds = %4
  %17 = getelementptr inbounds %class.MLRenderingPerMeshColorAction, ptr %12, i32 0, i32 2
  %18 = load i32, ptr %6, align 4
  store i32 %18, ptr %17, align 4
  invoke void @_ZN7QStringC2EPKc(ptr noundef nonnull align 8 dereferenceable(8) %11, ptr noundef @.str.30)
          to label %19 unwind label %21

19:                                               ; preds = %16
  invoke void @_ZN7QAction7setTextERK7QString(ptr noundef nonnull align 8 dereferenceable(16) %12, ptr noundef nonnull align 8 dereferenceable(8) %11)
          to label %20 unwind label %25

20:                                               ; preds = %19
  call void @_ZN7QStringD2Ev(ptr noundef nonnull align 8 dereferenceable(8) %11) #3
  ret void

21:                                               ; preds = %16, %4
  %22 = landingpad { ptr, i32 }
          cleanup
  %23 = extractvalue { ptr, i32 } %22, 0
  store ptr %23, ptr %9, align 8
  %24 = extractvalue { ptr, i32 } %22, 1
  store i32 %24, ptr %10, align 4
  br label %29

25:                                               ; preds = %19
  %26 = landingpad { ptr, i32 }
          cleanup
  %27 = extractvalue { ptr, i32 } %26, 0
  store ptr %27, ptr %9, align 8
  %28 = extractvalue { ptr, i32 } %26, 1
  store i32 %28, ptr %10, align 4
  call void @_ZN7QStringD2Ev(ptr noundef nonnull align 8 dereferenceable(8) %11) #3
  br label %29

29:                                               ; preds = %25, %21
  call void @_ZN17MLRenderingActionD2Ev(ptr noundef nonnull align 8 dereferenceable(16) %12) #3
  br label %30

30:                                               ; preds = %29
  %31 = load ptr, ptr %9, align 8
  %32 = load i32, ptr %10, align 4
  %33 = insertvalue { ptr, i32 } poison, ptr %31, 0
  %34 = insertvalue { ptr, i32 } %33, i32 %32, 1
  resume { ptr, i32 } %34
}